target datalayout = "e-m:e-p270:32:32-p271:32:32-p272:64:64-i64:64-i128:128-f80:128-n8:16:32:64-S128"
target triple = "x86_64-pc-linux-gnu"

%"class.pxrInternal_v0_24__pxrReserved__::GfMatrix2f" = type { %"class.pxrInternal_v0_24__pxrReserved__::GfMatrixData" }
%"class.pxrInternal_v0_24__pxrReserved__::GfMatrixData" = type { [4 x float] }

; Function Attrs: mustprogress nounwind uwtable
define linkonce_odr noundef ptr @_ZNK32pxrInternal_v0_24__pxrReserved__12GfMatrixDataIfLi2ELi2EEixEi(ptr noundef nonnull align 4 dereferenceable(16) %0, i32 noundef %1) #2 comdat align 2 {
  %3 = alloca ptr, align 8
  %4 = alloca i32, align 4
  store ptr %0, ptr %3, align 8
  store i32 %1, ptr %4, align 4
  %5 = load ptr, ptr %3, align 8
  %6 = getelementptr inbounds nuw %"class.pxrInternal_v0_24__pxrReserved__::GfMatrixData", ptr %5, i32 0, i32 0
  %7 = getelementptr inbounds [4 x float], ptr %6, i64 0, i64 0
  %8 = load i32, ptr %4, align 4
  %9 = mul nsw i32 %8, 2
  %10 = sext i32 %9 to i64
  %11 = getelementptr inbounds float, ptr %7, i64 %10
  ret ptr %11
}

; Function Attrs: mustprogress uwtable
define noundef zeroext i1 @_ZNK32pxrInternal_v0_24__pxrReserved__10GfMatrix2feqERKS0_(ptr noundef nonnull align 4 dereferenceable(16) %0, ptr noundef nonnull align 4 dereferenceable(16) %1) #0 align 2 {
  %3 = alloca ptr, align 8
  %4 = alloca ptr, align 8
  store ptr %0, ptr %3, align 8
  store ptr %1, ptr %4, align 8
  %5 = load ptr, ptr %3, align 8
  %6 = getelementptr inbounds nuw %"class.pxrInternal_v0_24__pxrReserved__::GfMatrix2f", ptr %5, i32 0, i32 0
  %7 = call noundef ptr @_ZNK32pxrInternal_v0_24__pxrReserved__12GfMatrixDataIfLi2ELi2EEixEi(ptr noundef nonnull align 4 dereferenceable(16) %6, i32 noundef 0)
  %8 = getelementptr inbounds float, ptr %7, i64 0
  %9 = load float, ptr %8, align 4
  %10 = load ptr, ptr %4, align 8
  %11 = getelementptr inbounds nuw %"class.pxrInternal_v0_24__pxrReserved__::GfMatrix2f", ptr %10, i32 0, i32 0
  %12 = call noundef ptr @_ZNK32pxrInternal_v0_24__pxrReserved__12GfMatrixDataIfLi2ELi2EEixEi(ptr noundef nonnull align 4 dereferenceable(16) %11, i32 noundef 0)
  %13 = getelementptr inbounds float, ptr %12, i64 0
  %14 = load float, ptr %13, align 4
  %15 = fcmp oeq float %9, %14
  br i1 %15, label %16, label %49

16:                                               ; preds = %2
  %17 = getelementptr inbounds nuw %"class.pxrInternal_v0_24__pxrReserved__::GfMatrix2f", ptr %5, i32 0, i32 0
  %18 = call noundef ptr @_ZNK32pxrInternal_v0_24__pxrReserved__12GfMatrixDataIfLi2ELi2EEixEi(ptr noundef nonnull align 4 dereferenceable(16) %17, i32 noundef 0)
  %19 = getelementptr inbounds float, ptr %18, i64 1
  %20 = load float, ptr %19, align 4
  %21 = load ptr, ptr %4, align 8
  %22 = getelementptr inbounds nuw %"class.pxrInternal_v0_24__pxrReserved__::GfMatrix2f", ptr %21, i32 0, i32 0
  %23 = call noundef ptr @_ZNK32pxrInternal_v0_24__pxrReserved__12GfMatrixDataIfLi2ELi2EEixEi(ptr noundef nonnull align 4 dereferenceable(16) %22, i32 noundef 0)
  %24 = getelementptr inbounds float, ptr %23, i64 1
  %25 = load float, ptr %24, align 4
  %26 = fcmp oeq float %20, %25
  br i1 %26, label %27, label %49

27:                                               ; preds = %16
  %28 = getelementptr inbounds nuw %"class.pxrInternal_v0_24__pxrReserved__::GfMatrix2f", ptr %5, i32 0, i32 0
  %29 = call noundef ptr @_ZNK32pxrInternal_v0_24__pxrReserved__12GfMatrixDataIfLi2ELi2EEixEi(ptr noundef nonnull align 4 dereferenceable(16) %28, i32 noundef 1)
  %30 = getelementptr inbounds float, ptr %29, i64 0
  %31 = load float, ptr %30, align 4
  %32 = load ptr, ptr %4, align 8
  %33 = getelementptr inbounds nuw %"class.pxrInternal_v0_24__pxrReserved__::GfMatrix2f", ptr %32, i32 0, i32 0
  %34 = call noundef ptr @_ZNK32pxrInternal_v0_24__pxrReserved__12GfMatrixDataIfLi2ELi2EEixEi(ptr noundef nonnull align 4 dereferenceable(16) %33, i32 noundef 1)
  %35 = getelementptr inbounds float, ptr %34, i64 0
  %36 = load float, ptr %35, align 4
  %37 = fcmp oeq float %31, %36
  br i1 %37, label %38, label %49

38:                                               ; preds = %27
  %39 = getelementptr inbounds nuw %"class.pxrInternal_v0_24__pxrReserved__::GfMatrix2f", ptr %5, i32 0, i32 0
  %40 = call noundef ptr @_ZNK32pxrInternal_v0_24__pxrReserved__12GfMatrixDataIfLi2ELi2EEixEi(ptr noundef nonnull align 4 dereferenceable(16) %39, i32 noundef 1)
  %41 = getelementptr inbounds float, ptr %40, i64 1
  %42 = load float, ptr %41, align 4
  %43 = load ptr, ptr %4, align 8
  %44 = getelementptr inbounds nuw %"class.pxrInternal_v0_24__pxrReserved__::GfMatrix2f", ptr %43, i32 0, i32 0
  %45 = call noundef ptr @_ZNK32pxrInternal_v0_24__pxrReserved__12GfMatrixDataIfLi2ELi2EEixEi(ptr noundef nonnull align 4 dereferenceable(16) %44, i32 noundef 1)
  %46 = getelementptr inbounds float, ptr %45, i64 1
  %47 = load float, ptr %46, align 4
  %48 = fcmp oeq float %42, %47
  br label %49

49:                                               ; preds = %38, %27, %16, %2
  %50 = phi i1 [ false, %27 ], [ false, %16 ], [ false, %2 ], [ %48, %38 ]
  ret i1 %50
}